; Function Attrs: mustprogress uwtable
define noundef nonnull align 8 dereferenceable(8) ptr @_ZN8QuantLib6detaillsERSoRKNS0_14ordinal_holderE(ptr noundef nonnull returned align 8 dereferenceable(8) %out, ptr nocapture noundef nonnull readonly align 8 dereferenceable(8) %holder) local_unnamed_addr #0 {
entry:
  %0 = load i64, ptr %holder, align 8, !tbaa !3
  %call.i = tail call noundef nonnull align 8 dereferenceable(8) ptr @_ZNSo9_M_insertImEERSoT_(ptr noundef nonnull align 8 dereferenceable(8) %out, i64 noundef %0)
  %1 = add i64 %0, -11
  %or.cond1 = icmp ult i64 %1, 3
  br i1 %or.cond1, label %if.end, label %if.else

if.else:                                          ; preds = %entry
  %rem = urem i64 %0, 10
  %switch.tableidx = add nsw i64 %rem, -1
  %2 = icmp ult i64 %switch.tableidx, 3
  br i1 %2, label %switch.lookup, label %if.end

switch.lookup:                                    ; preds = %if.else
  %switch.gep = getelementptr inbounds [3 x ptr], ptr @switch.table._ZN8QuantLib6detaillsERSoRKNS0_14ordinal_holderE, i64 0, i64 %switch.tableidx
  %switch.load = load ptr, ptr %switch.gep, align 8
  br label %if.end

if.end:                                           ; preds = %if.else, %switch.lookup, %entry
  %.str.1.sink = phi ptr [ @.str, %entry ], [ %switch.load, %switch.lookup ], [ @.str, %if.else ]
  %call1.i13 = tail call noundef nonnull align 8 dereferenceable(8) ptr @_ZSt16__ostream_insertIcSt11char_traitsIcEERSt13basic_ostreamIT_T0_ES6_PKS3_l(ptr noundef nonnull align 8 dereferenceable(8) %out, ptr noundef nonnull %.str.1.sink, i64 noundef 2)
  ret ptr %out
}